target datalayout = "e-m:e-p270:32:32-p271:32:32-p272:64:64-i64:64-i128:128-f80:128-n8:16:32:64-S128"
target triple = "x86_64-pc-linux-gnu"

@hf_gtpv2_ksi_ps = internal global i32 0, align 4
@hf_gtpv2_ck_ps = internal global i32 0, align 4
@hf_gtpv2_ik_ps = internal global i32 0, align 4
@hf_gtpv2_kc_ps = internal global i32 0, align 4
@hf_gtpv2_cksn_ps = internal global i32 0, align 4

; Function Attrs: null_pointer_is_valid sspstrong uwtable
define internal void @dissect_gtpv2_mm_ctx_for_cs_to_ps_srvcc(ptr noundef %0, ptr noundef %1, ptr noundef %2, ptr noundef %3, i16 noundef zeroext %4, i8 noundef zeroext %5, i8 noundef zeroext %6, ptr noundef %7) #1 {
  %9 = alloca ptr, align 8
  %10 = alloca ptr, align 8
  %11 = alloca ptr, align 8
  %12 = alloca ptr, align 8
  %13 = alloca i16, align 2
  %14 = alloca i8, align 1
  %15 = alloca i8, align 1
  %16 = alloca ptr, align 8
  %17 = alloca i32, align 4
  store ptr %0, ptr %9, align 8
  store ptr %1, ptr %10, align 8
  store ptr %2, ptr %11, align 8
  store ptr %3, ptr %12, align 8
  store i16 %4, ptr %13, align 2
  store i8 %5, ptr %14, align 1
  store i8 %6, ptr %15, align 1
  store ptr %7, ptr %16, align 8
  call void @llvm.lifetime.start.p0(i64 4, ptr %17) #11
  store i32 0, ptr %17, align 4
  %18 = load ptr, ptr %11, align 8
  %19 = load i32, ptr @hf_gtpv2_ksi_ps, align 4
  %20 = load ptr, ptr %9, align 8
  %21 = load i32, ptr %17, align 4
  %22 = call ptr @proto_tree_add_item(ptr noundef %18, i32 noundef %19, ptr noundef %20, i32 noundef %21, i32 noundef 1, i32 noundef 0)
  %23 = load i32, ptr %17, align 4
  %24 = add i32 %23, 1
  store i32 %24, ptr %17, align 4
  %25 = load ptr, ptr %11, align 8
  %26 = load i32, ptr @hf_gtpv2_ck_ps, align 4
  %27 = load ptr, ptr %9, align 8
  %28 = load i32, ptr %17, align 4
  %29 = call ptr @proto_tree_add_item(ptr noundef %25, i32 noundef %26, ptr noundef %27, i32 noundef %28, i32 noundef 16, i32 noundef 0)
  %30 = load i32, ptr %17, align 4
  %31 = add i32 %30, 16
  store i32 %31, ptr %17, align 4
  %32 = load ptr, ptr %11, align 8
  %33 = load i32, ptr @hf_gtpv2_ik_ps, align 4
  %34 = load ptr, ptr %9, align 8
  %35 = load i32, ptr %17, align 4
  %36 = call ptr @proto_tree_add_item(ptr noundef %32, i32 noundef %33, ptr noundef %34, i32 noundef %35, i32 noundef 16, i32 noundef 0)
  %37 = load i32, ptr %17, align 4
  %38 = add i32 %37, 16
  store i32 %38, ptr %17, align 4
  %39 = load ptr, ptr %11, align 8
  %40 = load i32, ptr @hf_gtpv2_kc_ps, align 4
  %41 = load ptr, ptr %9, align 8
  %42 = load i32, ptr %17, align 4
  %43 = call ptr @proto_tree_add_item(ptr noundef %39, i32 noundef %40, ptr noundef %41, i32 noundef %42, i32 noundef 8, i32 noundef 0)
  %44 = load i32, ptr %17, align 4
  %45 = add i32 %44, 8
  store i32 %45, ptr %17, align 4
  %46 = load ptr, ptr %11, align 8
  %47 = load i32, ptr @hf_gtpv2_cksn_ps, align 4
  %48 = load ptr, ptr %9, align 8
  %49 = load i32, ptr %17, align 4
  %50 = call ptr @proto_tree_add_item(ptr noundef %46, i32 noundef %47, ptr noundef %48, i32 noundef %49, i32 noundef 1, i32 noundef 0)
  call void @llvm.lifetime.end.p0(i64 4, ptr %17) #11
  ret void
}