; Function Attrs: null_pointer_is_valid sspstrong uwtable
define internal void @dissect_gtpv2_mm_ctx_for_cs_to_ps_srvcc(ptr noundef %0, ptr readnone captures(none) %1, ptr noundef %2, ptr readnone captures(none) %3, i16 zeroext %4, i8 zeroext %5, i8 zeroext %6, ptr readnone captures(none) %7) #1 {
  %9 = load i32, ptr @hf_gtpv2_ksi_ps, align 4
  %10 = tail call ptr @proto_tree_add_item(ptr noundef %2, i32 noundef %9, ptr noundef %0, i32 noundef 0, i32 noundef 1, i32 noundef 0)
  %11 = load i32, ptr @hf_gtpv2_ck_ps, align 4
  %12 = tail call ptr @proto_tree_add_item(ptr noundef %2, i32 noundef %11, ptr noundef %0, i32 noundef 1, i32 noundef 16, i32 noundef 0)
  %13 = load i32, ptr @hf_gtpv2_ik_ps, align 4
  %14 = tail call ptr @proto_tree_add_item(ptr noundef %2, i32 noundef %13, ptr noundef %0, i32 noundef 17, i32 noundef 16, i32 noundef 0)
  %15 = load i32, ptr @hf_gtpv2_kc_ps, align 4
  %16 = tail call ptr @proto_tree_add_item(ptr noundef %2, i32 noundef %15, ptr noundef %0, i32 noundef 33, i32 noundef 8, i32 noundef 0)
  %17 = load i32, ptr @hf_gtpv2_cksn_ps, align 4
  %18 = tail call ptr @proto_tree_add_item(ptr noundef %2, i32 noundef %17, ptr noundef %0, i32 noundef 41, i32 noundef 1, i32 noundef 0)
  ret void
}